target datalayout = "e-m:e-p270:32:32-p271:32:32-p272:64:64-i64:64-i128:128-f80:128-n8:16:32:64-S128"
target triple = "x86_64-pc-linux-gnu"

%"class.std::basic_ios" = type { %"class.std::ios_base", ptr, i8, i8, ptr, ptr, ptr, ptr }
%"class.std::ios_base" = type { ptr, i64, i64, i32, i32, i32, ptr, %"struct.std::ios_base::_Words", [8 x %"struct.std::ios_base::_Words"], i32, ptr, %"class.std::locale" }
%"struct.std::ios_base::_Words" = type { ptr, i64 }
%"class.std::locale" = type { ptr }
%"class.std::shared_ptr" = type { %"class.std::__shared_ptr" }
%"class.std::__shared_ptr" = type { ptr, %"class.std::__shared_count" }
%"class.std::__shared_count" = type { ptr }
%"class.std::basic_string_view" = type { i64, ptr }
%"class.std::__cxx11::basic_string" = type { %"struct.std::__cxx11::basic_string<char>::_Alloc_hider", i64, %union.anon }
%"struct.std::__cxx11::basic_string<char>::_Alloc_hider" = type { ptr }
%union.anon = type { i64, [8 x i8] }
%"struct.arrow::util::SourceLocation" = type <{ ptr, i32, [4 x i8] }>
%"class.std::shared_ptr.13" = type { %"class.std::__shared_ptr.14" }
%"class.std::__shared_ptr.14" = type { ptr, %"class.std::__shared_count" }
%"class.arrow::util::LogMessage" = type { %"class.std::shared_ptr.13" }
%"class.arrow::util::LogMessage::Impl" = type { %"struct.arrow::util::LogDetails", %"class.std::__cxx11::basic_string", %"class.std::__cxx11::basic_stringstream", %"class.std::shared_ptr" }
%"struct.arrow::util::LogDetails" = type { i32, %"class.std::chrono::time_point", %"struct.arrow::util::SourceLocation", %"class.std::basic_string_view" }
%"class.std::chrono::time_point" = type { %"class.std::chrono::duration" }
%"class.std::chrono::duration" = type { i64 }
%"class.std::__cxx11::basic_stringstream" = type { %"class.std::basic_iostream.base", %"class.std::__cxx11::basic_stringbuf", %"class.std::basic_ios" }
%"class.std::basic_iostream.base" = type { %"class.std::basic_istream.base", %"class.std::basic_ostream.base" }
%"class.std::basic_istream.base" = type { ptr, i64 }
%"class.std::basic_ostream.base" = type { ptr }
%"class.std::__cxx11::basic_stringbuf" = type { %"class.std::basic_streambuf", i32, %"class.std::__cxx11::basic_string" }
%"class.std::basic_streambuf" = type { ptr, ptr, ptr, ptr, ptr, ptr, ptr, %"class.std::locale" }

; Function Attrs: mustprogress nounwind uwtable
define linkonce_odr noundef ptr @_ZNKSt12__shared_ptrIN5arrow4util10LogMessage4ImplELN9__gnu_cxx12_Lock_policyE2EE3getEv(ptr noundef nonnull align 8 dereferenceable(16) %0) #7 comdat align 2 {
  %2 = alloca ptr, align 8
  store ptr %0, ptr %2, align 8, !tbaa !356
  %3 = load ptr, ptr %2, align 8
  %4 = getelementptr inbounds nuw %"class.std::__shared_ptr.14", ptr %3, i32 0, i32 0
  %5 = load ptr, ptr %4, align 8, !tbaa !358
  ret ptr %5
}

; Function Attrs: mustprogress nounwind uwtable
define linkonce_odr noundef ptr @_ZNKSt19__shared_ptr_accessIN5arrow4util10LogMessage4ImplELN9__gnu_cxx12_Lock_policyE2ELb0ELb0EE6_M_getEv(ptr noundef nonnull align 1 dereferenceable(1) %0) #7 comdat align 2 {
  %2 = alloca ptr, align 8
  store ptr %0, ptr %2, align 8, !tbaa !73
  %3 = load ptr, ptr %2, align 8
  %4 = call noundef ptr @_ZNKSt12__shared_ptrIN5arrow4util10LogMessage4ImplELN9__gnu_cxx12_Lock_policyE2EE3getEv(ptr noundef nonnull align 8 dereferenceable(16) %3) #3
  ret ptr %4
}

; Function Attrs: mustprogress nounwind uwtable
define linkonce_odr noundef ptr @_ZNKSt19__shared_ptr_accessIN5arrow4util10LogMessage4ImplELN9__gnu_cxx12_Lock_policyE2ELb0ELb0EEptEv(ptr noundef nonnull align 1 dereferenceable(1) %0) #7 comdat align 2 {
  %2 = alloca ptr, align 8
  store ptr %0, ptr %2, align 8, !tbaa !73
  %3 = load ptr, ptr %2, align 8
  %4 = call noundef ptr @_ZNKSt19__shared_ptr_accessIN5arrow4util10LogMessage4ImplELN9__gnu_cxx12_Lock_policyE2ELb0ELb0EE6_M_getEv(ptr noundef nonnull align 1 dereferenceable(1) %3) #3
  ret ptr %4
}

; Function Attrs: mustprogress uwtable
define noundef zeroext i1 @_ZN5arrow4util10LogMessage14CheckIsEnabledEv(ptr noundef nonnull align 8 dereferenceable(16) %0) #4 align 2 {
  %2 = alloca ptr, align 8
  %3 = alloca ptr, align 8
  store ptr %0, ptr %2, align 8, !tbaa !69
  %4 = load ptr, ptr %2, align 8
  call void @llvm.lifetime.start.p0(i64 8, ptr %3) #3
  %5 = getelementptr inbounds nuw %"class.arrow::util::LogMessage", ptr %4, i32 0, i32 0
  %6 = call noundef ptr @_ZNKSt19__shared_ptr_accessIN5arrow4util10LogMessage4ImplELN9__gnu_cxx12_Lock_policyE2ELb0ELb0EEptEv(ptr noundef nonnull align 1 dereferenceable(1) %5) #3
  %7 = call noundef ptr @_ZN5arrow4util10LogMessage4Impl17GetResolvedLoggerEv(ptr noundef nonnull align 8 dereferenceable(488) %6)
  store ptr %7, ptr %3, align 8, !tbaa !75
  %8 = load ptr, ptr %3, align 8, !tbaa !75
  %9 = icmp ne ptr %8, null
  br i1 %9, label %10, label %28

10:                                               ; preds = %1
  %11 = load ptr, ptr %3, align 8, !tbaa !75
  %12 = load ptr, ptr %11, align 8, !tbaa !77
  %13 = getelementptr inbounds ptr, ptr %12, i64 4
  %14 = load ptr, ptr %13, align 8
  %15 = call noundef zeroext i1 %14(ptr noundef nonnull align 8 dereferenceable(8) %11)
  br i1 %15, label %16, label %28

16:                                               ; preds = %10
  %17 = getelementptr inbounds nuw %"class.arrow::util::LogMessage", ptr %4, i32 0, i32 0
  %18 = call noundef ptr @_ZNKSt19__shared_ptr_accessIN5arrow4util10LogMessage4ImplELN9__gnu_cxx12_Lock_policyE2ELb0ELb0EEptEv(ptr noundef nonnull align 1 dereferenceable(1) %17) #3
  %19 = getelementptr inbounds nuw %"class.arrow::util::LogMessage::Impl", ptr %18, i32 0, i32 0
  %20 = getelementptr inbounds nuw %"struct.arrow::util::LogDetails", ptr %19, i32 0, i32 0
  %21 = load i32, ptr %20, align 8, !tbaa !79
  %22 = load ptr, ptr %3, align 8, !tbaa !75
  %23 = load ptr, ptr %22, align 8, !tbaa !77
  %24 = getelementptr inbounds ptr, ptr %23, i64 5
  %25 = load ptr, ptr %24, align 8
  %26 = call noundef i32 %25(ptr noundef nonnull align 8 dereferenceable(8) %22)
  %27 = icmp sge i32 %21, %26
  br label %28

28:                                               ; preds = %16, %10, %1
  %29 = phi i1 [ false, %10 ], [ false, %1 ], [ %27, %16 ]
  call void @llvm.lifetime.end.p0(i64 8, ptr %3) #3
  ret i1 %29
}