; Function Attrs: mustprogress uwtable
define noundef zeroext i1 @_ZN5arrow4util10LogMessage14CheckIsEnabledEv(ptr noundef nonnull readonly align 8 captures(none) dereferenceable(16) %0) local_unnamed_addr #3 align 2 {
  %2 = load ptr, ptr %0, align 8, !tbaa !65
  %3 = tail call noundef ptr @_ZN5arrow4util10LogMessage4Impl17GetResolvedLoggerEv(ptr noundef nonnull align 8 dereferenceable(488) %2)
  %.not = icmp eq ptr %3, null
  br i1 %.not, label %17, label %4

4:                                                ; preds = %1
  %5 = load ptr, ptr %3, align 8, !tbaa !12
  %6 = getelementptr inbounds nuw i8, ptr %5, i64 32
  %7 = load ptr, ptr %6, align 8
  %8 = tail call noundef zeroext i1 %7(ptr noundef nonnull align 8 dereferenceable(8) %3)
  br i1 %8, label %9, label %17

9:                                                ; preds = %4
  %10 = load ptr, ptr %0, align 8, !tbaa !65
  %11 = load i32, ptr %10, align 8, !tbaa !73
  %12 = load ptr, ptr %3, align 8, !tbaa !12
  %13 = getelementptr inbounds nuw i8, ptr %12, i64 40
  %14 = load ptr, ptr %13, align 8
  %15 = tail call noundef i32 %14(ptr noundef nonnull align 8 dereferenceable(8) %3)
  %16 = icmp sge i32 %11, %15
  br label %17

17:                                               ; preds = %9, %4, %1
  %18 = phi i1 [ false, %4 ], [ false, %1 ], [ %16, %9 ]
  ret i1 %18
}